target datalayout = "e-m:e-p270:32:32-p271:32:32-p272:64:64-i64:64-i128:128-f80:128-n8:16:32:64-S128"
target triple = "x86_64-pc-linux-gnu"

%struct.DdManager = type { %struct.DdNode, ptr, ptr, ptr, ptr, ptr, ptr, ptr, i32, i32, double, double, double, i32, i32, i32, i32, i32, i32, ptr, ptr, %struct.DdSubtable, i32, i32, i32, i32, i32, i32, i32, double, i32, i32, i32, ptr, i64, double, i32, ptr, ptr, ptr, ptr, ptr, ptr, ptr, i32, ptr, ptr, ptr, ptr, ptr, ptr, i32, i32, i32, double, i32, i32, i32, i32, double, double, i32, i32, i32, i32, i32, i32, i32, i32, i32, ptr, ptr, i32, i32, i32, i32, i32, i32, ptr, ptr, ptr, ptr, ptr, ptr, ptr, ptr, i32, i64, i64, i64, i32, i64, i64, double, double, double, double, double, double, i32, ptr, ptr, i64 }
%struct.DdNode = type { i32, i32, ptr, %union.anon, i64 }
%union.anon = type { %struct.DdChildren }
%struct.DdChildren = type { ptr, ptr }
%struct.DdSubtable = type { ptr, i32, i32, i32, i32, i32, i32, i32, i32, i32, i32, i32 }
%struct.Abc_Ntk_t_ = type { i32, i32, ptr, ptr, ptr, ptr, ptr, ptr, ptr, ptr, ptr, ptr, ptr, [11 x i32], i32, i32, i32, i32, ptr, i32, ptr, ptr, i32, i32, i32, double, i32, %struct.Vec_Int_t_, ptr, ptr, ptr, ptr, ptr, float, i32, ptr, ptr, ptr, ptr, ptr, ptr, ptr, ptr, ptr, ptr, ptr, ptr, ptr, ptr, ptr, ptr, ptr, ptr, ptr, ptr, ptr }
%struct.Vec_Int_t_ = type { i32, i32, ptr }
%struct.Abc_Obj_t_ = type { ptr, ptr, i32, i32, %struct.Vec_Int_t_, %struct.Vec_Int_t_, %union.anon.0, %union.anon.1 }
%union.anon.0 = type { ptr }
%union.anon.1 = type { ptr }
%struct.Vec_Ptr_t_ = type { i32, i32, ptr }

@.str = private unnamed_addr constant [2 x i8] c"F\00", align 1
@stdout = external global ptr, align 8
@.str.1 = private unnamed_addr constant [51 x i8] c"Abc_NtkDeriveFromBdd(): Network check has failed.\0A\00", align 1

; Function Attrs: nounwind uwtable
define internal ptr @Abc_NtkCreatePo(ptr noundef %0) #0 {
  %2 = alloca ptr, align 8
  store ptr %0, ptr %2, align 8
  %3 = load ptr, ptr %2, align 8
  %4 = call ptr @Abc_NtkCreateObj(ptr noundef %3, i32 noundef 3)
  ret ptr %4
}

; Function Attrs: nounwind uwtable
define internal ptr @Abc_NtkPi(ptr noundef %0, i32 noundef %1) #0 {
  %3 = alloca ptr, align 8
  %4 = alloca i32, align 4
  store ptr %0, ptr %3, align 8
  store i32 %1, ptr %4, align 4
  %5 = load ptr, ptr %3, align 8
  %6 = getelementptr inbounds %struct.Abc_Ntk_t_, ptr %5, i32 0, i32 6
  %7 = load ptr, ptr %6, align 8
  %8 = load i32, ptr %4, align 4
  %9 = call ptr @Vec_PtrEntry(ptr noundef %7, i32 noundef %8)
  ret ptr %9
}

; Function Attrs: nounwind uwtable
define internal i32 @Abc_NtkPiNum(ptr noundef %0) #0 {
  %2 = alloca ptr, align 8
  store ptr %0, ptr %2, align 8
  %3 = load ptr, ptr %2, align 8
  %4 = getelementptr inbounds %struct.Abc_Ntk_t_, ptr %3, i32 0, i32 6
  %5 = load ptr, ptr %4, align 8
  %6 = call i32 @Vec_PtrSize(ptr noundef %5)
  ret i32 %6
}

; Function Attrs: nounwind uwtable
define internal ptr @Abc_NtkCreateNode(ptr noundef %0) #0 {
  %2 = alloca ptr, align 8
  store ptr %0, ptr %2, align 8
  %3 = load ptr, ptr %2, align 8
  %4 = call ptr @Abc_NtkCreateObj(ptr noundef %3, i32 noundef 7)
  ret ptr %4
}

; Function Attrs: nounwind uwtable
define internal ptr @Abc_NtkCreatePi(ptr noundef %0) #0 {
  %2 = alloca ptr, align 8
  store ptr %0, ptr %2, align 8
  %3 = load ptr, ptr %2, align 8
  %4 = call ptr @Abc_NtkCreateObj(ptr noundef %3, i32 noundef 2)
  ret ptr %4
}

; Function Attrs: nounwind uwtable
define internal ptr @Vec_PtrEntry(ptr noundef %0, i32 noundef %1) #0 {
  %3 = alloca ptr, align 8
  %4 = alloca i32, align 4
  store ptr %0, ptr %3, align 8
  store i32 %1, ptr %4, align 4
  %5 = load ptr, ptr %3, align 8
  %6 = getelementptr inbounds %struct.Vec_Ptr_t_, ptr %5, i32 0, i32 2
  %7 = load ptr, ptr %6, align 8
  %8 = load i32, ptr %4, align 4
  %9 = sext i32 %8 to i64
  %10 = getelementptr inbounds ptr, ptr %7, i64 %9
  %11 = load ptr, ptr %10, align 8
  ret ptr %11
}

; Function Attrs: nounwind uwtable
define internal i32 @Vec_PtrSize(ptr noundef %0) #0 {
  %2 = alloca ptr, align 8
  store ptr %0, ptr %2, align 8
  %3 = load ptr, ptr %2, align 8
  %4 = getelementptr inbounds %struct.Vec_Ptr_t_, ptr %3, i32 0, i32 1
  %5 = load i32, ptr %4, align 4
  ret i32 %5
}

; Function Attrs: nounwind uwtable
define ptr @Abc_NtkDeriveFromBdd(ptr noundef %0, ptr noundef %1, ptr noundef %2, ptr noundef %3) #0 {
  %5 = alloca ptr, align 8
  %6 = alloca ptr, align 8
  %7 = alloca ptr, align 8
  %8 = alloca ptr, align 8
  %9 = alloca ptr, align 8
  %10 = alloca ptr, align 8
  %11 = alloca ptr, align 8
  %12 = alloca ptr, align 8
  %13 = alloca ptr, align 8
  %14 = alloca ptr, align 8
  %15 = alloca ptr, align 8
  %16 = alloca ptr, align 8
  %17 = alloca ptr, align 8
  %18 = alloca ptr, align 8
  %19 = alloca i32, align 4
  store ptr %0, ptr %6, align 8
  store ptr %1, ptr %7, align 8
  store ptr %2, ptr %8, align 8
  store ptr %3, ptr %9, align 8
  %20 = load ptr, ptr %6, align 8
  store ptr %20, ptr %10, align 8
  store ptr null, ptr %12, align 8
  %21 = load ptr, ptr %8, align 8
  %22 = icmp eq ptr %21, null
  br i1 %22, label %23, label %24

23:                                               ; preds = %4
  store ptr @.str, ptr %8, align 8
  br label %24

24:                                               ; preds = %23, %4
  %25 = load ptr, ptr %9, align 8
  %26 = icmp eq ptr %25, null
  br i1 %26, label %27, label %33

27:                                               ; preds = %24
  %28 = load ptr, ptr %10, align 8
  %29 = getelementptr inbounds %struct.DdManager, ptr %28, i32 0, i32 15
  %30 = load i32, ptr %29, align 8
  %31 = call ptr @Abc_NodeGetFakeNames(i32 noundef %30)
  store ptr %31, ptr %12, align 8
  %32 = load ptr, ptr %12, align 8
  store ptr %32, ptr %9, align 8
  br label %33

33:                                               ; preds = %27, %24
  %34 = load ptr, ptr %10, align 8
  %35 = load ptr, ptr %7, align 8
  %36 = call ptr @Cudd_Support(ptr noundef %34, ptr noundef %35)
  store ptr %36, ptr %16, align 8
  %37 = load ptr, ptr %16, align 8
  call void @Cudd_Ref(ptr noundef %37)
  %38 = load ptr, ptr %16, align 8
  store ptr %38, ptr %17, align 8
  br label %39

39:                                               ; preds = %52, %33
  %40 = load ptr, ptr %17, align 8
  %41 = load ptr, ptr %10, align 8
  %42 = call ptr @Cudd_ReadOne(ptr noundef %41)
  %43 = icmp ne ptr %40, %42
  br i1 %43, label %44, label %57

44:                                               ; preds = %39
  %45 = load ptr, ptr %17, align 8
  %46 = call i32 @Cudd_NodeReadIndex(ptr noundef %45)
  %47 = load ptr, ptr %9, align 8
  %48 = call i32 @Vec_PtrSize(ptr noundef %47)
  %49 = icmp sge i32 %46, %48
  br i1 %49, label %50, label %51

50:                                               ; preds = %44
  br label %57

51:                                               ; preds = %44
  br label %52

52:                                               ; preds = %51
  %53 = load ptr, ptr %17, align 8
  %54 = getelementptr inbounds %struct.DdNode, ptr %53, i32 0, i32 3
  %55 = getelementptr inbounds %struct.DdChildren, ptr %54, i32 0, i32 0
  %56 = load ptr, ptr %55, align 8
  store ptr %56, ptr %17, align 8
  br label %39, !llvm.loop !4

57:                                               ; preds = %50, %39
  %58 = load ptr, ptr %10, align 8
  %59 = load ptr, ptr %16, align 8
  call void @Cudd_RecursiveDeref(ptr noundef %58, ptr noundef %59)
  %60 = load ptr, ptr %17, align 8
  %61 = load ptr, ptr %10, align 8
  %62 = call ptr @Cudd_ReadOne(ptr noundef %61)
  %63 = icmp ne ptr %60, %62
  br i1 %63, label %64, label %65

64:                                               ; preds = %57
  store ptr null, ptr %5, align 8
  br label %150

65:                                               ; preds = %57
  %66 = call ptr @Abc_NtkAlloc(i32 noundef 2, i32 noundef 2, i32 noundef 1)
  store ptr %66, ptr %11, align 8
  %67 = load ptr, ptr %8, align 8
  %68 = call ptr @Extra_UtilStrsav(ptr noundef %67)
  %69 = load ptr, ptr %11, align 8
  %70 = getelementptr inbounds %struct.Abc_Ntk_t_, ptr %69, i32 0, i32 2
  store ptr %68, ptr %70, align 8
  %71 = load ptr, ptr %11, align 8
  %72 = getelementptr inbounds %struct.Abc_Ntk_t_, ptr %71, i32 0, i32 30
  %73 = load ptr, ptr %72, align 8
  %74 = load ptr, ptr %9, align 8
  %75 = call i32 @Vec_PtrSize(ptr noundef %74)
  %76 = call ptr @Cudd_bddIthVar(ptr noundef %73, i32 noundef %75)
  store i32 0, ptr %19, align 4
  br label %77

77:                                               ; preds = %93, %65
  %78 = load i32, ptr %19, align 4
  %79 = load ptr, ptr %9, align 8
  %80 = call i32 @Vec_PtrSize(ptr noundef %79)
  %81 = icmp slt i32 %78, %80
  br i1 %81, label %82, label %86

82:                                               ; preds = %77
  %83 = load ptr, ptr %9, align 8
  %84 = load i32, ptr %19, align 4
  %85 = call ptr @Vec_PtrEntry(ptr noundef %83, i32 noundef %84)
  store ptr %85, ptr %18, align 8
  br label %86

86:                                               ; preds = %82, %77
  %87 = phi i1 [ false, %77 ], [ true, %82 ]
  br i1 %87, label %88, label %96

88:                                               ; preds = %86
  %89 = load ptr, ptr %11, align 8
  %90 = call ptr @Abc_NtkCreatePi(ptr noundef %89)
  %91 = load ptr, ptr %18, align 8
  %92 = call ptr @Abc_ObjAssignName(ptr noundef %90, ptr noundef %91, ptr noundef null)
  br label %93

93:                                               ; preds = %88
  %94 = load i32, ptr %19, align 4
  %95 = add nsw i32 %94, 1
  store i32 %95, ptr %19, align 4
  br label %77, !llvm.loop !6

96:                                               ; preds = %86
  %97 = load ptr, ptr %11, align 8
  %98 = call ptr @Abc_NtkCreateNode(ptr noundef %97)
  store ptr %98, ptr %13, align 8
  %99 = load ptr, ptr %10, align 8
  %100 = load ptr, ptr %11, align 8
  %101 = getelementptr inbounds %struct.Abc_Ntk_t_, ptr %100, i32 0, i32 30
  %102 = load ptr, ptr %101, align 8
  %103 = load ptr, ptr %7, align 8
  %104 = call ptr @Cudd_bddTransfer(ptr noundef %99, ptr noundef %102, ptr noundef %103)
  %105 = load ptr, ptr %13, align 8
  %106 = getelementptr inbounds %struct.Abc_Obj_t_, ptr %105, i32 0, i32 6
  store ptr %104, ptr %106, align 8
  %107 = load ptr, ptr %13, align 8
  %108 = getelementptr inbounds %struct.Abc_Obj_t_, ptr %107, i32 0, i32 6
  %109 = load ptr, ptr %108, align 8
  call void @Cudd_Ref(ptr noundef %109)
  store i32 0, ptr %19, align 4
  br label %110

110:                                              ; preds = %124, %96
  %111 = load i32, ptr %19, align 4
  %112 = load ptr, ptr %11, align 8
  %113 = call i32 @Abc_NtkPiNum(ptr noundef %112)
  %114 = icmp slt i32 %111, %113
  br i1 %114, label %115, label %119

115:                                              ; preds = %110
  %116 = load ptr, ptr %11, align 8
  %117 = load i32, ptr %19, align 4
  %118 = call ptr @Abc_NtkPi(ptr noundef %116, i32 noundef %117)
  store ptr %118, ptr %14, align 8
  br label %119

119:                                              ; preds = %115, %110
  %120 = phi i1 [ false, %110 ], [ true, %115 ]
  br i1 %120, label %121, label %127

121:                                              ; preds = %119
  %122 = load ptr, ptr %13, align 8
  %123 = load ptr, ptr %14, align 8
  call void @Abc_ObjAddFanin(ptr noundef %122, ptr noundef %123)
  br label %124

124:                                              ; preds = %121
  %125 = load i32, ptr %19, align 4
  %126 = add nsw i32 %125, 1
  store i32 %126, ptr %19, align 4
  br label %110, !llvm.loop !7

127:                                              ; preds = %119
  %128 = load ptr, ptr %11, align 8
  %129 = call ptr @Abc_NtkCreatePo(ptr noundef %128)
  store ptr %129, ptr %15, align 8
  %130 = load ptr, ptr %15, align 8
  %131 = load ptr, ptr %13, align 8
  call void @Abc_ObjAddFanin(ptr noundef %130, ptr noundef %131)
  %132 = load ptr, ptr %15, align 8
  %133 = load ptr, ptr %8, align 8
  %134 = call ptr @Abc_ObjAssignName(ptr noundef %132, ptr noundef %133, ptr noundef null)
  %135 = load ptr, ptr %11, align 8
  %136 = call i32 @Abc_NtkMinimumBase(ptr noundef %135)
  %137 = load ptr, ptr %12, align 8
  %138 = icmp ne ptr %137, null
  br i1 %138, label %139, label %141

139:                                              ; preds = %127
  %140 = load ptr, ptr %12, align 8
  call void @Abc_NodeFreeNames(ptr noundef %140)
  br label %141

141:                                              ; preds = %139, %127
  %142 = load ptr, ptr %11, align 8
  %143 = call i32 @Abc_NtkCheck(ptr noundef %142)
  %144 = icmp ne i32 %143, 0
  br i1 %144, label %148, label %145

145:                                              ; preds = %141
  %146 = load ptr, ptr @stdout, align 8
  %147 = call i32 (ptr, ptr, ...) @fprintf(ptr noundef %146, ptr noundef @.str.1) #8
  br label %148

148:                                              ; preds = %145, %141
  %149 = load ptr, ptr %11, align 8
  store ptr %149, ptr %5, align 8
  br label %150

150:                                              ; preds = %148, %64
  %151 = load ptr, ptr %5, align 8
  ret ptr %151
}