; Function Attrs: nounwind uwtable
define ptr @Abc_NtkDeriveFromBdd(ptr noundef %0, ptr noundef %1, ptr noundef %2, ptr noundef readonly %3) local_unnamed_addr #0 {
  %5 = icmp eq ptr %2, null
  %spec.store.select = select i1 %5, ptr @.str, ptr %2
  %6 = icmp eq ptr %3, null
  br i1 %6, label %7, label %11

7:                                                ; preds = %4
  %8 = getelementptr inbounds nuw i8, ptr %0, i64 136
  %9 = load i32, ptr %8, align 8
  %10 = tail call ptr @Abc_NodeGetFakeNames(i32 noundef %9) #14
  br label %11

11:                                               ; preds = %7, %4
  %.057 = phi ptr [ %10, %7 ], [ null, %4 ]
  %.056 = phi ptr [ %10, %7 ], [ %3, %4 ]
  %12 = tail call ptr @Cudd_Support(ptr noundef %0, ptr noundef %1) #14
  tail call void @Cudd_Ref(ptr noundef %12) #14
  %13 = tail call ptr @Cudd_ReadOne(ptr noundef %0) #14
  %.not67 = icmp eq ptr %12, %13
  br i1 %.not67, label %._crit_edge, label %.lr.ph

.lr.ph:                                           ; preds = %11
  %14 = getelementptr i8, ptr %.056, i64 4
  br label %15

15:                                               ; preds = %.lr.ph, %17
  %.05568 = phi ptr [ %12, %.lr.ph ], [ %19, %17 ]
  %16 = tail call i32 @Cudd_NodeReadIndex(ptr noundef %.05568) #14
  %.056.val = load i32, ptr %14, align 4
  %.not59 = icmp slt i32 %16, %.056.val
  br i1 %.not59, label %17, label %._crit_edge

17:                                               ; preds = %15
  %18 = getelementptr inbounds nuw i8, ptr %.05568, i64 16
  %19 = load ptr, ptr %18, align 8
  %20 = tail call ptr @Cudd_ReadOne(ptr noundef %0) #14
  %.not = icmp eq ptr %19, %20
  br i1 %.not, label %._crit_edge, label %15, !llvm.loop !4

._crit_edge:                                      ; preds = %17, %15, %11
  %.055.lcssa = phi ptr [ %12, %11 ], [ %.05568, %15 ], [ %19, %17 ]
  tail call void @Cudd_RecursiveDeref(ptr noundef %0, ptr noundef %12) #14
  %21 = tail call ptr @Cudd_ReadOne(ptr noundef %0) #14
  %.not60 = icmp eq ptr %.055.lcssa, %21
  br i1 %.not60, label %22, label %61

22:                                               ; preds = %._crit_edge
  %23 = tail call ptr @Abc_NtkAlloc(i32 noundef 2, i32 noundef 2, i32 noundef 1) #14
  %24 = tail call ptr @Extra_UtilStrsav(ptr noundef nonnull %spec.store.select) #14
  %25 = getelementptr inbounds nuw i8, ptr %23, i64 8
  store ptr %24, ptr %25, align 8
  %26 = getelementptr inbounds nuw i8, ptr %23, i64 256
  %27 = load ptr, ptr %26, align 8
  %28 = getelementptr i8, ptr %.056, i64 4
  %.056.val63 = load i32, ptr %28, align 4
  %29 = tail call ptr @Cudd_bddIthVar(ptr noundef %27, i32 noundef %.056.val63) #14
  %.056.val6471 = load i32, ptr %28, align 4
  %30 = icmp sgt i32 %.056.val6471, 0
  br i1 %30, label %.lr.ph74, label %.critedge

.lr.ph74:                                         ; preds = %22
  %31 = getelementptr i8, ptr %.056, i64 8
  br label %32

32:                                               ; preds = %.lr.ph74, %32
  %indvars.iv = phi i64 [ 0, %.lr.ph74 ], [ %indvars.iv.next, %32 ]
  %.056.val65 = load ptr, ptr %31, align 8
  %33 = getelementptr inbounds nuw ptr, ptr %.056.val65, i64 %indvars.iv
  %34 = load ptr, ptr %33, align 8
  %35 = tail call ptr @Abc_NtkCreateObj(ptr noundef %23, i32 noundef 2) #14
  %36 = tail call ptr @Abc_ObjAssignName(ptr noundef %35, ptr noundef %34, ptr noundef null) #14
  %indvars.iv.next = add nuw nsw i64 %indvars.iv, 1
  %.056.val64 = load i32, ptr %28, align 4
  %37 = sext i32 %.056.val64 to i64
  %38 = icmp slt i64 %indvars.iv.next, %37
  br i1 %38, label %32, label %.critedge, !llvm.loop !6

.critedge:                                        ; preds = %32, %22
  %39 = tail call ptr @Abc_NtkCreateObj(ptr noundef %23, i32 noundef 7) #14
  %40 = load ptr, ptr %26, align 8
  %41 = tail call ptr @Cudd_bddTransfer(ptr noundef %0, ptr noundef %40, ptr noundef %1) #14
  %42 = getelementptr inbounds nuw i8, ptr %39, i64 56
  store ptr %41, ptr %42, align 8
  tail call void @Cudd_Ref(ptr noundef %41) #14
  %43 = getelementptr i8, ptr %23, i64 40
  %.val75 = load ptr, ptr %43, align 8
  %44 = getelementptr i8, ptr %.val75, i64 4
  %.val.val76 = load i32, ptr %44, align 4
  %45 = icmp sgt i32 %.val.val76, 0
  br i1 %45, label %.lr.ph79, label %.critedge2

.lr.ph79:                                         ; preds = %.critedge, %.lr.ph79
  %indvars.iv81 = phi i64 [ %indvars.iv.next82, %.lr.ph79 ], [ 0, %.critedge ]
  %.val78 = phi ptr [ %.val, %.lr.ph79 ], [ %.val75, %.critedge ]
  %46 = getelementptr i8, ptr %.val78, i64 8
  %.val66.val = load ptr, ptr %46, align 8
  %47 = getelementptr inbounds nuw ptr, ptr %.val66.val, i64 %indvars.iv81
  %48 = load ptr, ptr %47, align 8
  tail call void @Abc_ObjAddFanin(ptr noundef %39, ptr noundef %48) #14
  %indvars.iv.next82 = add nuw nsw i64 %indvars.iv81, 1
  %.val = load ptr, ptr %43, align 8
  %49 = getelementptr i8, ptr %.val, i64 4
  %.val.val = load i32, ptr %49, align 4
  %50 = sext i32 %.val.val to i64
  %51 = icmp slt i64 %indvars.iv.next82, %50
  br i1 %51, label %.lr.ph79, label %.critedge2, !llvm.loop !7

.critedge2:                                       ; preds = %.lr.ph79, %.critedge
  %52 = tail call ptr @Abc_NtkCreateObj(ptr noundef nonnull %23, i32 noundef 3) #14
  tail call void @Abc_ObjAddFanin(ptr noundef %52, ptr noundef %39) #14
  %53 = tail call ptr @Abc_ObjAssignName(ptr noundef %52, ptr noundef nonnull %spec.store.select, ptr noundef null) #14
  %54 = tail call i32 @Abc_NtkMinimumBase(ptr noundef nonnull %23) #14
  %.not61 = icmp eq ptr %.057, null
  br i1 %.not61, label %56, label %55

55:                                               ; preds = %.critedge2
  tail call void @Abc_NodeFreeNames(ptr noundef nonnull %.057) #14
  br label %56

56:                                               ; preds = %55, %.critedge2
  %57 = tail call i32 @Abc_NtkCheck(ptr noundef nonnull %23) #14
  %.not62 = icmp eq i32 %57, 0
  br i1 %.not62, label %58, label %61

58:                                               ; preds = %56
  %59 = load ptr, ptr @stdout, align 8
  %60 = tail call i64 @fwrite(ptr nonnull @.str.1, i64 50, i64 1, ptr %59)
  br label %61

61:                                               ; preds = %56, %58, %._crit_edge
  %.054 = phi ptr [ null, %._crit_edge ], [ %23, %58 ], [ %23, %56 ]
  ret ptr %.054
}